target datalayout = "e-m:e-p270:32:32-p271:32:32-p272:64:64-i64:64-i128:128-f80:128-n8:16:32:64-S128"
target triple = "x86_64-pc-linux-gnu"

%"class.clang::SourceLocation" = type { i32 }
%"class.clang::Decl.base" = type <{ ptr, %"class.llvm::PointerIntPair.338", %"class.llvm::PointerUnion", %"class.clang::SourceLocation", i32, i8 }>
%"class.llvm::PointerIntPair.338" = type { %"struct.llvm::detail::PunnedPointer.339" }
%"struct.llvm::detail::PunnedPointer.339" = type { [8 x i8] }
%"class.llvm::PointerUnion" = type { %"class.llvm::pointer_union_detail::PointerUnionMembers" }
%"class.llvm::pointer_union_detail::PointerUnionMembers" = type { %"class.llvm::pointer_union_detail::PointerUnionMembers.340" }
%"class.llvm::pointer_union_detail::PointerUnionMembers.340" = type { %"class.llvm::pointer_union_detail::PointerUnionMembers.341" }
%"class.llvm::pointer_union_detail::PointerUnionMembers.341" = type { %"class.llvm::PointerIntPair.342" }
%"class.llvm::PointerIntPair.342" = type { %"struct.llvm::detail::PunnedPointer.343" }
%"struct.llvm::detail::PunnedPointer.343" = type { [8 x i8] }
%"class.clang::DeclarationName" = type { i64 }
%"class.clang::QualType" = type { %"class.llvm::PointerIntPair" }
%"class.llvm::PointerIntPair" = type { %"struct.llvm::detail::PunnedPointer" }
%"struct.llvm::detail::PunnedPointer" = type { [8 x i8] }
%"class.clang::OMPDeclareReductionDecl" = type { %"class.clang::ValueDecl", %"class.clang::DeclContext", ptr, ptr, ptr, ptr, ptr, ptr, %"struct.clang::LazyOffsetPtr" }
%"class.clang::ValueDecl" = type { %"class.clang::NamedDecl", %"class.clang::QualType" }
%"class.clang::NamedDecl" = type { %"class.clang::Decl.base", %"class.clang::DeclarationName" }
%"class.clang::DeclContext" = type { ptr, %union.anon.344, ptr, ptr }
%union.anon.344 = type { %"class.clang::DeclContext::RecordDeclBitfields" }
%"class.clang::DeclContext::RecordDeclBitfields" = type { i64 }
%"struct.clang::LazyOffsetPtr" = type { i64 }

@_ZTVN5clang9ValueDeclE = external unnamed_addr constant { [15 x ptr] }, align 8
@_ZTVN5clang9NamedDeclE = external unnamed_addr constant { [15 x ptr] }, align 8

; Function Attrs: mustprogress nounwind uwtable
define linkonce_odr hidden noundef i32 @_ZN4llvm13to_underlyingIN5clang27OMPDeclareReductionInitKindEEENSt15underlying_typeIT_E4typeES4_(i32 noundef %0) #0 comdat {
  %2 = alloca i32, align 4
  store i32 %0, ptr %2, align 4
  %3 = load i32, ptr %2, align 4
  ret i32 %3
}

; Function Attrs: mustprogress nounwind uwtable
define linkonce_odr hidden void @_ZN5clang9NamedDeclC2ENS_4Decl4KindEPNS_11DeclContextENS_14SourceLocationENS_15DeclarationNameE(ptr noundef nonnull align 8 dereferenceable(48) %0, i32 noundef %1, ptr noundef %2, i32 %3, i64 %4) unnamed_addr #0 comdat align 2 {
  %6 = alloca %"class.clang::SourceLocation", align 4
  %7 = alloca %"class.clang::DeclarationName", align 8
  %8 = alloca ptr, align 8
  %9 = alloca i32, align 4
  %10 = alloca ptr, align 8
  %11 = alloca %"class.clang::SourceLocation", align 4
  %12 = getelementptr inbounds nuw %"class.clang::SourceLocation", ptr %6, i32 0, i32 0
  store i32 %3, ptr %12, align 4
  %13 = getelementptr inbounds nuw %"class.clang::DeclarationName", ptr %7, i32 0, i32 0
  store i64 %4, ptr %13, align 8
  store ptr %0, ptr %8, align 8
  store i32 %1, ptr %9, align 4
  store ptr %2, ptr %10, align 8
  %14 = load ptr, ptr %8, align 8
  %15 = load i32, ptr %9, align 4
  %16 = load ptr, ptr %10, align 8
  call void @llvm.memcpy.p0.p0.i64(ptr align 4 %11, ptr align 4 %6, i64 4, i1 false)
  %17 = getelementptr inbounds nuw %"class.clang::SourceLocation", ptr %11, i32 0, i32 0
  %18 = load i32, ptr %17, align 4
  call void @_ZN5clang4DeclC2ENS0_4KindEPNS_11DeclContextENS_14SourceLocationE(ptr noundef nonnull align 8 dereferenceable(33) %14, i32 noundef %15, ptr noundef %16, i32 %18)
  store ptr getelementptr inbounds inrange(-16, 104) ({ [15 x ptr] }, ptr @_ZTVN5clang9NamedDeclE, i32 0, i32 0, i32 2), ptr %14, align 8
  %19 = getelementptr inbounds nuw %"class.clang::NamedDecl", ptr %14, i32 0, i32 1
  call void @llvm.memcpy.p0.p0.i64(ptr align 8 %19, ptr align 8 %7, i64 8, i1 false)
  ret void
}

; Function Attrs: mustprogress nounwind uwtable
define linkonce_odr hidden void @_ZN5clang23OMPDeclareReductionDecl14setInitializerEPNS_4ExprENS_27OMPDeclareReductionInitKindE(ptr noundef nonnull align 8 dereferenceable(144) %0, ptr noundef %1, i32 noundef %2) #0 comdat align 2 {
  %4 = alloca ptr, align 8
  %5 = alloca ptr, align 8
  %6 = alloca i32, align 4
  store ptr %0, ptr %4, align 8
  store ptr %1, ptr %5, align 8
  store i32 %2, ptr %6, align 4
  %7 = load ptr, ptr %4, align 8
  %8 = load ptr, ptr %5, align 8
  %9 = getelementptr inbounds nuw %"class.clang::OMPDeclareReductionDecl", ptr %7, i32 0, i32 3
  store ptr %8, ptr %9, align 8
  %10 = load i32, ptr %6, align 4
  %11 = call noundef i32 @_ZN4llvm13to_underlyingIN5clang27OMPDeclareReductionInitKindEEENSt15underlying_typeIT_E4typeES4_(i32 noundef %10)
  %12 = sext i32 %11 to i64
  %13 = getelementptr inbounds i8, ptr %7, i64 56
  %14 = getelementptr inbounds nuw %"class.clang::DeclContext", ptr %13, i32 0, i32 1
  %15 = trunc i64 %12 to i16
  %16 = load i16, ptr %14, align 8
  %17 = and i16 %15, 3
  %18 = shl i16 %17, 13
  %19 = and i16 %16, -24577
  %20 = or i16 %19, %18
  store i16 %20, ptr %14, align 8
  ret void
}

; Function Attrs: mustprogress nounwind uwtable
define linkonce_odr hidden void @_ZN5clang13LazyOffsetPtrINS_4DeclENS_12GlobalDeclIDEXadL_ZNS_17ExternalASTSource15GetExternalDeclES2_EEEC2EPS1_(ptr noundef nonnull align 8 dereferenceable(8) %0, ptr noundef %1) unnamed_addr #0 comdat align 2 {
  %3 = alloca ptr, align 8
  %4 = alloca ptr, align 8
  store ptr %0, ptr %3, align 8
  store ptr %1, ptr %4, align 8
  %5 = load ptr, ptr %3, align 8
  %6 = getelementptr inbounds nuw %"struct.clang::LazyOffsetPtr", ptr %5, i32 0, i32 0
  %7 = load ptr, ptr %4, align 8
  %8 = ptrtoint ptr %7 to i64
  store i64 %8, ptr %6, align 8
  ret void
}

; Function Attrs: mustprogress nounwind uwtable
define linkonce_odr hidden void @_ZN5clang9ValueDeclC2ENS_4Decl4KindEPNS_11DeclContextENS_14SourceLocationENS_15DeclarationNameENS_8QualTypeE(ptr noundef nonnull align 8 dereferenceable(56) %0, i32 noundef %1, ptr noundef %2, i32 %3, i64 %4, i64 %5) unnamed_addr #0 comdat align 2 {
  %7 = alloca %"class.clang::SourceLocation", align 4
  %8 = alloca %"class.clang::DeclarationName", align 8
  %9 = alloca %"class.clang::QualType", align 8
  %10 = alloca ptr, align 8
  %11 = alloca i32, align 4
  %12 = alloca ptr, align 8
  %13 = alloca %"class.clang::SourceLocation", align 4
  %14 = alloca %"class.clang::DeclarationName", align 8
  %15 = getelementptr inbounds nuw %"class.clang::SourceLocation", ptr %7, i32 0, i32 0
  store i32 %3, ptr %15, align 4
  %16 = getelementptr inbounds nuw %"class.clang::DeclarationName", ptr %8, i32 0, i32 0
  store i64 %4, ptr %16, align 8
  %17 = getelementptr inbounds nuw %"class.clang::QualType", ptr %9, i32 0, i32 0
  %18 = getelementptr inbounds nuw %"class.llvm::PointerIntPair", ptr %17, i32 0, i32 0
  %19 = getelementptr inbounds nuw %"struct.llvm::detail::PunnedPointer", ptr %18, i32 0, i32 0
  store i64 %5, ptr %19, align 8
  store ptr %0, ptr %10, align 8
  store i32 %1, ptr %11, align 4
  store ptr %2, ptr %12, align 8
  %20 = load ptr, ptr %10, align 8
  %21 = load i32, ptr %11, align 4
  %22 = load ptr, ptr %12, align 8
  call void @llvm.memcpy.p0.p0.i64(ptr align 4 %13, ptr align 4 %7, i64 4, i1 false)
  call void @llvm.memcpy.p0.p0.i64(ptr align 8 %14, ptr align 8 %8, i64 8, i1 false)
  %23 = getelementptr inbounds nuw %"class.clang::SourceLocation", ptr %13, i32 0, i32 0
  %24 = load i32, ptr %23, align 4
  %25 = getelementptr inbounds nuw %"class.clang::DeclarationName", ptr %14, i32 0, i32 0
  %26 = load i64, ptr %25, align 8
  call void @_ZN5clang9NamedDeclC2ENS_4Decl4KindEPNS_11DeclContextENS_14SourceLocationENS_15DeclarationNameE(ptr noundef nonnull align 8 dereferenceable(48) %20, i32 noundef %21, ptr noundef %22, i32 %24, i64 %26)
  store ptr getelementptr inbounds inrange(-16, 104) ({ [15 x ptr] }, ptr @_ZTVN5clang9ValueDeclE, i32 0, i32 0, i32 2), ptr %20, align 8
  %27 = getelementptr inbounds nuw %"class.clang::ValueDecl", ptr %20, i32 0, i32 1
  call void @llvm.memcpy.p0.p0.i64(ptr align 8 %27, ptr align 8 %9, i64 8, i1 false)
  ret void
}

; Function Attrs: mustprogress nounwind uwtable
define dso_local void @_ZN5clang23OMPDeclareReductionDeclC2ENS_4Decl4KindEPNS_11DeclContextENS_14SourceLocationENS_15DeclarationNameENS_8QualTypeEPS0_(ptr noundef nonnull align 8 dereferenceable(144) %0, i32 noundef %1, ptr noundef %2, i32 %3, i64 %4, i64 %5, ptr noundef %6) unnamed_addr #0 align 2 {
  %8 = alloca %"class.clang::SourceLocation", align 4
  %9 = alloca %"class.clang::DeclarationName", align 8
  %10 = alloca %"class.clang::QualType", align 8
  %11 = alloca ptr, align 8
  %12 = alloca i32, align 4
  %13 = alloca ptr, align 8
  %14 = alloca ptr, align 8
  %15 = alloca %"class.clang::SourceLocation", align 4
  %16 = alloca %"class.clang::DeclarationName", align 8
  %17 = alloca %"class.clang::QualType", align 8
  %18 = getelementptr inbounds nuw %"class.clang::SourceLocation", ptr %8, i32 0, i32 0
  store i32 %3, ptr %18, align 4
  %19 = getelementptr inbounds nuw %"class.clang::DeclarationName", ptr %9, i32 0, i32 0
  store i64 %4, ptr %19, align 8
  %20 = getelementptr inbounds nuw %"class.clang::QualType", ptr %10, i32 0, i32 0
  %21 = getelementptr inbounds nuw %"class.llvm::PointerIntPair", ptr %20, i32 0, i32 0
  %22 = getelementptr inbounds nuw %"struct.llvm::detail::PunnedPointer", ptr %21, i32 0, i32 0
  store i64 %5, ptr %22, align 8
  store ptr %0, ptr %11, align 8
  store i32 %1, ptr %12, align 4
  store ptr %2, ptr %13, align 8
  store ptr %6, ptr %14, align 8
  %23 = load ptr, ptr %11, align 8
  %24 = load i32, ptr %12, align 4
  %25 = load ptr, ptr %13, align 8
  call void @llvm.memcpy.p0.p0.i64(ptr align 4 %15, ptr align 4 %8, i64 4, i1 false)
  call void @llvm.memcpy.p0.p0.i64(ptr align 8 %16, ptr align 8 %9, i64 8, i1 false)
  call void @llvm.memcpy.p0.p0.i64(ptr align 8 %17, ptr align 8 %10, i64 8, i1 false)
  %26 = getelementptr inbounds nuw %"class.clang::SourceLocation", ptr %15, i32 0, i32 0
  %27 = load i32, ptr %26, align 4
  %28 = getelementptr inbounds nuw %"class.clang::DeclarationName", ptr %16, i32 0, i32 0
  %29 = load i64, ptr %28, align 8
  %30 = getelementptr inbounds nuw %"class.clang::QualType", ptr %17, i32 0, i32 0
  %31 = getelementptr inbounds nuw %"class.llvm::PointerIntPair", ptr %30, i32 0, i32 0
  %32 = getelementptr inbounds nuw %"struct.llvm::detail::PunnedPointer", ptr %31, i32 0, i32 0
  %33 = load i64, ptr %32, align 8
  call void @_ZN5clang9ValueDeclC2ENS_4Decl4KindEPNS_11DeclContextENS_14SourceLocationENS_15DeclarationNameENS_8QualTypeE(ptr noundef nonnull align 8 dereferenceable(56) %23, i32 noundef %24, ptr noundef %25, i32 %27, i64 %29, i64 %33)
  %34 = getelementptr inbounds i8, ptr %23, i64 56
  %35 = load i32, ptr %12, align 4
  call void @_ZN5clang11DeclContextC2ENS_4Decl4KindE(ptr noundef nonnull align 8 dereferenceable(32) %34, i32 noundef %35)
  store ptr getelementptr inbounds inrange(-16, 104) ({ [15 x ptr] }, ptr @_ZTVN5clang23OMPDeclareReductionDeclE, i32 0, i32 0, i32 2), ptr %23, align 8
  %36 = getelementptr inbounds nuw %"class.clang::OMPDeclareReductionDecl", ptr %23, i32 0, i32 2
  store ptr null, ptr %36, align 8
  %37 = getelementptr inbounds nuw %"class.clang::OMPDeclareReductionDecl", ptr %23, i32 0, i32 3
  store ptr null, ptr %37, align 8
  %38 = getelementptr inbounds nuw %"class.clang::OMPDeclareReductionDecl", ptr %23, i32 0, i32 4
  store ptr null, ptr %38, align 8
  %39 = getelementptr inbounds nuw %"class.clang::OMPDeclareReductionDecl", ptr %23, i32 0, i32 5
  store ptr null, ptr %39, align 8
  %40 = getelementptr inbounds nuw %"class.clang::OMPDeclareReductionDecl", ptr %23, i32 0, i32 6
  store ptr null, ptr %40, align 8
  %41 = getelementptr inbounds nuw %"class.clang::OMPDeclareReductionDecl", ptr %23, i32 0, i32 7
  store ptr null, ptr %41, align 8
  %42 = getelementptr inbounds nuw %"class.clang::OMPDeclareReductionDecl", ptr %23, i32 0, i32 8
  %43 = load ptr, ptr %14, align 8
  call void @_ZN5clang13LazyOffsetPtrINS_4DeclENS_12GlobalDeclIDEXadL_ZNS_17ExternalASTSource15GetExternalDeclES2_EEEC2EPS1_(ptr noundef nonnull align 8 dereferenceable(8) %42, ptr noundef %43)
  call void @_ZN5clang23OMPDeclareReductionDecl14setInitializerEPNS_4ExprENS_27OMPDeclareReductionInitKindE(ptr noundef nonnull align 8 dereferenceable(144) %23, ptr noundef null, i32 noundef 0)
  ret void
}