; Function Attrs: mustprogress nounwind uwtable
define dso_local void @_ZN5clang23OMPDeclareReductionDeclC2ENS_4Decl4KindEPNS_11DeclContextENS_14SourceLocationENS_15DeclarationNameENS_8QualTypeEPS0_(ptr noundef nonnull align 8 dereferenceable(144) %0, i32 noundef %1, ptr noundef %2, i32 %3, i64 %4, i64 %5, ptr noundef %6) unnamed_addr #1 align 2 {
  tail call void @_ZN5clang4DeclC2ENS0_4KindEPNS_11DeclContextENS_14SourceLocationE(ptr noundef nonnull align 8 dereferenceable(33) %0, i32 noundef %1, ptr noundef %2, i32 %3)
  %8 = getelementptr inbounds nuw i8, ptr %0, i64 40
  store i64 %4, ptr %8, align 8
  store ptr getelementptr inbounds inrange(-16, 104) (i8, ptr @_ZTVN5clang9ValueDeclE, i64 16), ptr %0, align 8
  %9 = getelementptr inbounds nuw i8, ptr %0, i64 48
  store i64 %5, ptr %9, align 8
  %10 = getelementptr inbounds i8, ptr %0, i64 56
  tail call void @_ZN5clang11DeclContextC2ENS_4Decl4KindE(ptr noundef nonnull align 8 dereferenceable(32) %10, i32 noundef %1) #10
  store ptr getelementptr inbounds inrange(-16, 104) (i8, ptr @_ZTVN5clang23OMPDeclareReductionDeclE, i64 16), ptr %0, align 8
  %11 = getelementptr inbounds nuw i8, ptr %0, i64 88
  %12 = getelementptr inbounds nuw i8, ptr %0, i64 136
  %13 = ptrtoint ptr %6 to i64
  tail call void @llvm.memset.p0.i64(ptr noundef nonnull align 8 dereferenceable(48) %11, i8 0, i64 48, i1 false)
  store i64 %13, ptr %12, align 8
  %14 = getelementptr inbounds i8, ptr %0, i64 64
  %15 = load i16, ptr %14, align 8
  %16 = and i16 %15, -24577
  store i16 %16, ptr %14, align 8
  ret void
}